; Function Attrs: uwtable
define void @_ZThn8_N3gmx26FirstOrderPressureCoupling22restoreCheckpointStateESt8optionalINS_14CheckpointDataILNS_23CheckpointDataOperationE0EEEEPK9t_commrec(ptr noundef %0, ptr %1, i8 %2, ptr noundef readonly captures(none) %3) unnamed_addr #5 align 2 {
  %5 = alloca %"class.std::optional.8", align 8
  %6 = getelementptr inbounds i8, ptr %0, i64 -8
  call void @llvm.lifetime.start.p0(i64 16, ptr nonnull %5)
  store ptr %1, ptr %5, align 8
  %7 = getelementptr inbounds nuw i8, ptr %5, i64 8
  store i8 %2, ptr %7, align 8
  %8 = getelementptr inbounds nuw i8, ptr %3, i64 60
  %9 = load i32, ptr %8, align 4, !tbaa !141
  %10 = icmp eq i32 %9, 0
  br i1 %10, label %15, label %11

11:                                               ; preds = %4
  %12 = getelementptr inbounds nuw i8, ptr %3, i64 56
  %13 = load i32, ptr %12, align 8, !tbaa !159
  %14 = icmp sgt i32 %13, 1
  br i1 %14, label %18, label %15

15:                                               ; preds = %11, %4
  %16 = trunc nuw i8 %2 to i1
  br i1 %16, label %_ZNRSt8optionalIN3gmx14CheckpointDataILNS0_23CheckpointDataOperationE0EEEE5valueEv.exit.i, label %17

17:                                               ; preds = %15
  tail call void @_ZSt27__throw_bad_optional_accessv() #28
  unreachable

_ZNRSt8optionalIN3gmx14CheckpointDataILNS0_23CheckpointDataOperationE0EEEE5valueEv.exit.i: ; preds = %15
  call void @_ZN3gmx26FirstOrderPressureCoupling16doCheckpointDataILNS_23CheckpointDataOperationE0EEEvPNS_14CheckpointDataIXT_EEE(ptr noundef nonnull align 8 dereferenceable(240) %6, ptr noundef nonnull %5)
  br label %18

18:                                               ; preds = %_ZNRSt8optionalIN3gmx14CheckpointDataILNS0_23CheckpointDataOperationE0EEEE5valueEv.exit.i, %11
  %19 = getelementptr i8, ptr %3, i64 112
  %.val.i = load ptr, ptr %19, align 8, !tbaa !164
  %.not.i = icmp eq ptr %.val.i, null
  br i1 %.not.i, label %_ZN3gmx26FirstOrderPressureCoupling22restoreCheckpointStateESt8optionalINS_14CheckpointDataILNS_23CheckpointDataOperationE0EEEEPK9t_commrec.exit, label %20

20:                                               ; preds = %18
  %21 = getelementptr inbounds nuw i8, ptr %0, i64 120
  call void @_Z8dd_bcastPK12gmx_domdec_tiPv(ptr noundef nonnull %.val.i, i32 noundef 8, ptr noundef nonnull %21)
  %22 = load ptr, ptr %19, align 8, !tbaa !164
  %23 = getelementptr inbounds nuw i8, ptr %0, i64 136
  call void @_Z8dd_bcastPK12gmx_domdec_tiPv(ptr noundef %22, i32 noundef 8, ptr noundef nonnull %23)
  %24 = load ptr, ptr %19, align 8, !tbaa !164
  %25 = getelementptr inbounds nuw i8, ptr %0, i64 80
  call void @_Z8dd_bcastPK12gmx_domdec_tiPv(ptr noundef %24, i32 noundef 36, ptr noundef nonnull %25)
  br label %_ZN3gmx26FirstOrderPressureCoupling22restoreCheckpointStateESt8optionalINS_14CheckpointDataILNS_23CheckpointDataOperationE0EEEEPK9t_commrec.exit

_ZN3gmx26FirstOrderPressureCoupling22restoreCheckpointStateESt8optionalINS_14CheckpointDataILNS_23CheckpointDataOperationE0EEEEPK9t_commrec.exit: ; preds = %18, %20
  call void @llvm.lifetime.end.p0(i64 16, ptr nonnull %5)
  ret void
}